target datalayout = "e-m:e-p270:32:32-p271:32:32-p272:64:64-i64:64-i128:128-f80:128-n8:16:32:64-S128"
target triple = "x86_64-pc-linux-gnu"

%struct.AVRational = type { i32, i32 }
%struct.AVFilterContext = type { ptr, ptr, ptr, ptr, ptr, i32, ptr, ptr, i32, ptr, ptr, i32, i32, ptr, ptr, ptr, ptr, i32, ptr, i32, i32 }
%struct.GradientsContext = type { ptr, i32, i32, i32, %struct.AVRational, i64, i64, float, float, [8 x [4 x i8]], [8 x [4 x float]], i32, i32, i32, i32, i32, float, float, float, float, i64, %struct.AVLFG, ptr }
%struct.AVLFG = type { [64 x i32], i32 }
%struct.AVFilterLink = type { ptr, ptr, ptr, ptr, i32, i32, i32, i32, %struct.AVRational, i32, i32, i32, %struct.AVChannelLayout, %struct.AVRational, ptr, i32, %struct.AVFilterFormatsConfig, %struct.AVFilterFormatsConfig }
%struct.AVChannelLayout = type { i32, i32, %union.anon.1, ptr }
%union.anon.1 = type { i64 }
%struct.AVFilterFormatsConfig = type { ptr, ptr, ptr, ptr, ptr }
%struct.AVFrame = type { [8 x ptr], [8 x i32], ptr, i32, i32, i32, i32, i32, %struct.AVRational, i64, i64, %struct.AVRational, i32, ptr, i32, i32, [8 x ptr], ptr, i32, ptr, i32, i32, i32, i32, i32, i32, i32, i64, ptr, i32, ptr, ptr, i64, i64, i64, i64, ptr, %struct.AVChannelLayout, i64 }

; Function Attrs: inlinehint nounwind uwtable
define internal void @ff_outlink_set_status(ptr noundef %0, i32 noundef %1, i64 noundef %2) #3 {
  %4 = alloca ptr, align 8
  %5 = alloca i32, align 4
  %6 = alloca i64, align 8
  store ptr %0, ptr %4, align 8, !tbaa !25
  store i32 %1, ptr %5, align 4, !tbaa !60
  store i64 %2, ptr %6, align 8, !tbaa !86
  %7 = load ptr, ptr %4, align 8, !tbaa !25
  %8 = load i32, ptr %5, align 4, !tbaa !60
  %9 = load i64, ptr %6, align 8, !tbaa !86
  call void @ff_avfilter_link_set_in_status(ptr noundef %7, i32 noundef %8, i64 noundef %9)
  ret void
}

; Function Attrs: nounwind uwtable
define internal i32 @activate(ptr noundef %0) #1 {
  %2 = alloca i32, align 4
  %3 = alloca ptr, align 8
  %4 = alloca ptr, align 8
  %5 = alloca ptr, align 8
  %6 = alloca %struct.AVRational, align 4
  %7 = alloca i32, align 4
  %8 = alloca ptr, align 8
  %9 = alloca float, align 4
  %10 = alloca float, align 4
  %11 = alloca float, align 4
  %12 = alloca %struct.AVRational, align 4
  store ptr %0, ptr %3, align 8, !tbaa !4
  call void @llvm.lifetime.start.p0(i64 8, ptr %4) #10
  %13 = load ptr, ptr %3, align 8, !tbaa !4
  %14 = getelementptr inbounds nuw %struct.AVFilterContext, ptr %13, i32 0, i32 9
  %15 = load ptr, ptr %14, align 8, !tbaa !9
  store ptr %15, ptr %4, align 8, !tbaa !22
  call void @llvm.lifetime.start.p0(i64 8, ptr %5) #10
  %16 = load ptr, ptr %3, align 8, !tbaa !4
  %17 = getelementptr inbounds nuw %struct.AVFilterContext, ptr %16, i32 0, i32 7
  %18 = load ptr, ptr %17, align 8, !tbaa !24
  %19 = getelementptr inbounds ptr, ptr %18, i64 0
  %20 = load ptr, ptr %19, align 8, !tbaa !25
  store ptr %20, ptr %5, align 8, !tbaa !25
  %21 = load ptr, ptr %4, align 8, !tbaa !22
  %22 = getelementptr inbounds nuw %struct.GradientsContext, ptr %21, i32 0, i32 6
  %23 = load i64, ptr %22, align 8, !tbaa !27
  %24 = icmp sge i64 %23, 0
  br i1 %24, label %25, label %45

25:                                               ; preds = %1
  %26 = load ptr, ptr %4, align 8, !tbaa !22
  %27 = getelementptr inbounds nuw %struct.GradientsContext, ptr %26, i32 0, i32 5
  %28 = load i64, ptr %27, align 8, !tbaa !33
  %29 = load ptr, ptr %5, align 8, !tbaa !25
  %30 = getelementptr inbounds nuw %struct.AVFilterLink, ptr %29, i32 0, i32 13
  %31 = getelementptr inbounds nuw %struct.AVRational, ptr %6, i32 0, i32 0
  store i32 1, ptr %31, align 4, !tbaa !34
  %32 = getelementptr inbounds nuw %struct.AVRational, ptr %6, i32 0, i32 1
  store i32 1000000, ptr %32, align 4, !tbaa !35
  %33 = load i64, ptr %30, align 8
  %34 = load i64, ptr %6, align 4
  %35 = call i64 @av_rescale_q(i64 noundef %28, i64 %33, i64 %34) #11
  %36 = load ptr, ptr %4, align 8, !tbaa !22
  %37 = getelementptr inbounds nuw %struct.GradientsContext, ptr %36, i32 0, i32 6
  %38 = load i64, ptr %37, align 8, !tbaa !27
  %39 = icmp sge i64 %35, %38
  br i1 %39, label %40, label %45

40:                                               ; preds = %25
  %41 = load ptr, ptr %5, align 8, !tbaa !25
  %42 = load ptr, ptr %4, align 8, !tbaa !22
  %43 = getelementptr inbounds nuw %struct.GradientsContext, ptr %42, i32 0, i32 5
  %44 = load i64, ptr %43, align 8, !tbaa !33
  call void @ff_outlink_set_status(ptr noundef %41, i32 noundef -541478725, i64 noundef %44)
  store i32 0, ptr %2, align 4
  store i32 1, ptr %7, align 4
  br label %221

45:                                               ; preds = %25, %1
  %46 = load ptr, ptr %5, align 8, !tbaa !25
  %47 = call i32 @ff_outlink_frame_wanted(ptr noundef %46)
  %48 = icmp ne i32 %47, 0
  br i1 %48, label %49, label %220

49:                                               ; preds = %45
  call void @llvm.lifetime.start.p0(i64 8, ptr %8) #10
  %50 = load ptr, ptr %5, align 8, !tbaa !25
  %51 = load ptr, ptr %4, align 8, !tbaa !22
  %52 = getelementptr inbounds nuw %struct.GradientsContext, ptr %51, i32 0, i32 1
  %53 = load i32, ptr %52, align 8, !tbaa !36
  %54 = load ptr, ptr %4, align 8, !tbaa !22
  %55 = getelementptr inbounds nuw %struct.GradientsContext, ptr %54, i32 0, i32 2
  %56 = load i32, ptr %55, align 4, !tbaa !37
  %57 = call ptr @ff_get_video_buffer(ptr noundef %50, i32 noundef %53, i32 noundef %56)
  store ptr %57, ptr %8, align 8, !tbaa !38
  call void @llvm.lifetime.start.p0(i64 4, ptr %9) #10
  %58 = load ptr, ptr %4, align 8, !tbaa !22
  %59 = getelementptr inbounds nuw %struct.GradientsContext, ptr %58, i32 0, i32 8
  %60 = load float, ptr %59, align 4, !tbaa !40
  %61 = frem nsz float %60, 0x401921FB60000000
  store float %61, ptr %9, align 4, !tbaa !41
  call void @llvm.lifetime.start.p0(i64 4, ptr %10) #10
  %62 = load ptr, ptr %4, align 8, !tbaa !22
  %63 = getelementptr inbounds nuw %struct.GradientsContext, ptr %62, i32 0, i32 1
  %64 = load i32, ptr %63, align 8, !tbaa !36
  %65 = sitofp i32 %64 to float
  %66 = fdiv nsz float %65, 2.000000e+00
  store float %66, ptr %10, align 4, !tbaa !41
  call void @llvm.lifetime.start.p0(i64 4, ptr %11) #10
  %67 = load ptr, ptr %4, align 8, !tbaa !22
  %68 = getelementptr inbounds nuw %struct.GradientsContext, ptr %67, i32 0, i32 2
  %69 = load i32, ptr %68, align 4, !tbaa !37
  %70 = sitofp i32 %69 to float
  %71 = fdiv nsz float %70, 2.000000e+00
  store float %71, ptr %11, align 4, !tbaa !41
  %72 = load float, ptr %9, align 4, !tbaa !41
  %73 = load ptr, ptr %4, align 8, !tbaa !22
  %74 = getelementptr inbounds nuw %struct.GradientsContext, ptr %73, i32 0, i32 7
  %75 = load float, ptr %74, align 8, !tbaa !42
  %76 = fadd nsz float %72, %75
  %77 = load ptr, ptr %4, align 8, !tbaa !22
  %78 = getelementptr inbounds nuw %struct.GradientsContext, ptr %77, i32 0, i32 8
  store float %76, ptr %78, align 4, !tbaa !40
  %79 = load ptr, ptr %4, align 8, !tbaa !22
  %80 = getelementptr inbounds nuw %struct.GradientsContext, ptr %79, i32 0, i32 12
  %81 = load i32, ptr %80, align 4, !tbaa !43
  %82 = sitofp i32 %81 to float
  %83 = load float, ptr %10, align 4, !tbaa !41
  %84 = fsub nsz float %82, %83
  %85 = load float, ptr %9, align 4, !tbaa !41
  %86 = call nsz float @llvm.cos.f32(float %85)
  %87 = load ptr, ptr %4, align 8, !tbaa !22
  %88 = getelementptr inbounds nuw %struct.GradientsContext, ptr %87, i32 0, i32 13
  %89 = load i32, ptr %88, align 8, !tbaa !44
  %90 = sitofp i32 %89 to float
  %91 = load float, ptr %11, align 4, !tbaa !41
  %92 = fsub nsz float %90, %91
  %93 = load float, ptr %9, align 4, !tbaa !41
  %94 = call nsz float @llvm.sin.f32(float %93)
  %95 = fmul nsz float %92, %94
  %96 = fneg nsz float %95
  %97 = call nsz float @llvm.fmuladd.f32(float %84, float %86, float %96)
  %98 = load float, ptr %10, align 4, !tbaa !41
  %99 = fadd nsz float %97, %98
  %100 = load ptr, ptr %4, align 8, !tbaa !22
  %101 = getelementptr inbounds nuw %struct.GradientsContext, ptr %100, i32 0, i32 16
  store float %99, ptr %101, align 4, !tbaa !45
  %102 = load ptr, ptr %4, align 8, !tbaa !22
  %103 = getelementptr inbounds nuw %struct.GradientsContext, ptr %102, i32 0, i32 12
  %104 = load i32, ptr %103, align 4, !tbaa !43
  %105 = sitofp i32 %104 to float
  %106 = load float, ptr %10, align 4, !tbaa !41
  %107 = fsub nsz float %105, %106
  %108 = load float, ptr %9, align 4, !tbaa !41
  %109 = call nsz float @llvm.sin.f32(float %108)
  %110 = load ptr, ptr %4, align 8, !tbaa !22
  %111 = getelementptr inbounds nuw %struct.GradientsContext, ptr %110, i32 0, i32 13
  %112 = load i32, ptr %111, align 8, !tbaa !44
  %113 = sitofp i32 %112 to float
  %114 = load float, ptr %11, align 4, !tbaa !41
  %115 = fsub nsz float %113, %114
  %116 = load float, ptr %9, align 4, !tbaa !41
  %117 = call nsz float @llvm.cos.f32(float %116)
  %118 = fmul nsz float %115, %117
  %119 = call nsz float @llvm.fmuladd.f32(float %107, float %109, float %118)
  %120 = load float, ptr %11, align 4, !tbaa !41
  %121 = fadd nsz float %119, %120
  %122 = load ptr, ptr %4, align 8, !tbaa !22
  %123 = getelementptr inbounds nuw %struct.GradientsContext, ptr %122, i32 0, i32 17
  store float %121, ptr %123, align 8, !tbaa !46
  %124 = load ptr, ptr %4, align 8, !tbaa !22
  %125 = getelementptr inbounds nuw %struct.GradientsContext, ptr %124, i32 0, i32 14
  %126 = load i32, ptr %125, align 4, !tbaa !47
  %127 = sitofp i32 %126 to float
  %128 = load float, ptr %10, align 4, !tbaa !41
  %129 = fsub nsz float %127, %128
  %130 = load float, ptr %9, align 4, !tbaa !41
  %131 = call nsz float @llvm.cos.f32(float %130)
  %132 = load ptr, ptr %4, align 8, !tbaa !22
  %133 = getelementptr inbounds nuw %struct.GradientsContext, ptr %132, i32 0, i32 15
  %134 = load i32, ptr %133, align 8, !tbaa !48
  %135 = sitofp i32 %134 to float
  %136 = load float, ptr %11, align 4, !tbaa !41
  %137 = fsub nsz float %135, %136
  %138 = load float, ptr %9, align 4, !tbaa !41
  %139 = call nsz float @llvm.sin.f32(float %138)
  %140 = fmul nsz float %137, %139
  %141 = fneg nsz float %140
  %142 = call nsz float @llvm.fmuladd.f32(float %129, float %131, float %141)
  %143 = load float, ptr %10, align 4, !tbaa !41
  %144 = fadd nsz float %142, %143
  %145 = load ptr, ptr %4, align 8, !tbaa !22
  %146 = getelementptr inbounds nuw %struct.GradientsContext, ptr %145, i32 0, i32 18
  store float %144, ptr %146, align 4, !tbaa !49
  %147 = load ptr, ptr %4, align 8, !tbaa !22
  %148 = getelementptr inbounds nuw %struct.GradientsContext, ptr %147, i32 0, i32 14
  %149 = load i32, ptr %148, align 4, !tbaa !47
  %150 = sitofp i32 %149 to float
  %151 = load float, ptr %10, align 4, !tbaa !41
  %152 = fsub nsz float %150, %151
  %153 = load float, ptr %9, align 4, !tbaa !41
  %154 = call nsz float @llvm.sin.f32(float %153)
  %155 = load ptr, ptr %4, align 8, !tbaa !22
  %156 = getelementptr inbounds nuw %struct.GradientsContext, ptr %155, i32 0, i32 15
  %157 = load i32, ptr %156, align 8, !tbaa !48
  %158 = sitofp i32 %157 to float
  %159 = load float, ptr %11, align 4, !tbaa !41
  %160 = fsub nsz float %158, %159
  %161 = load float, ptr %9, align 4, !tbaa !41
  %162 = call nsz float @llvm.cos.f32(float %161)
  %163 = fmul nsz float %160, %162
  %164 = call nsz float @llvm.fmuladd.f32(float %152, float %154, float %163)
  %165 = load float, ptr %11, align 4, !tbaa !41
  %166 = fadd nsz float %164, %165
  %167 = load ptr, ptr %4, align 8, !tbaa !22
  %168 = getelementptr inbounds nuw %struct.GradientsContext, ptr %167, i32 0, i32 19
  store float %166, ptr %168, align 8, !tbaa !50
  %169 = load ptr, ptr %8, align 8, !tbaa !38
  %170 = icmp ne ptr %169, null
  br i1 %170, label %172, label %171

171:                                              ; preds = %49
  store i32 -12, ptr %2, align 4
  store i32 1, ptr %7, align 4
  br label %219

172:                                              ; preds = %49
  %173 = load ptr, ptr %8, align 8, !tbaa !38
  %174 = getelementptr inbounds nuw %struct.AVFrame, ptr %173, i32 0, i32 21
  %175 = load i32, ptr %174, align 4, !tbaa !51
  %176 = or i32 %175, 2
  store i32 %176, ptr %174, align 4, !tbaa !51
  %177 = load ptr, ptr %8, align 8, !tbaa !38
  %178 = getelementptr inbounds nuw %struct.AVFrame, ptr %177, i32 0, i32 21
  %179 = load i32, ptr %178, align 4, !tbaa !51
  %180 = and i32 %179, -9
  store i32 %180, ptr %178, align 4, !tbaa !51
  %181 = load ptr, ptr %8, align 8, !tbaa !38
  %182 = getelementptr inbounds nuw %struct.AVFrame, ptr %181, i32 0, i32 7
  store i32 1, ptr %182, align 8, !tbaa !58
  %183 = load ptr, ptr %8, align 8, !tbaa !38
  %184 = getelementptr inbounds nuw %struct.AVFrame, ptr %183, i32 0, i32 8
  %185 = getelementptr inbounds nuw %struct.AVRational, ptr %12, i32 0, i32 0
  store i32 1, ptr %185, align 4, !tbaa !34
  %186 = getelementptr inbounds nuw %struct.AVRational, ptr %12, i32 0, i32 1
  store i32 1, ptr %186, align 4, !tbaa !35
  call void @llvm.memcpy.p0.p0.i64(ptr align 4 %184, ptr align 4 %12, i64 8, i1 false), !tbaa.struct !59
  %187 = load ptr, ptr %4, align 8, !tbaa !22
  %188 = getelementptr inbounds nuw %struct.GradientsContext, ptr %187, i32 0, i32 5
  %189 = load i64, ptr %188, align 8, !tbaa !33
  %190 = add nsw i64 %189, 1
  store i64 %190, ptr %188, align 8, !tbaa !33
  %191 = load ptr, ptr %8, align 8, !tbaa !38
  %192 = getelementptr inbounds nuw %struct.AVFrame, ptr %191, i32 0, i32 9
  store i64 %189, ptr %192, align 8, !tbaa !61
  %193 = load ptr, ptr %8, align 8, !tbaa !38
  %194 = getelementptr inbounds nuw %struct.AVFrame, ptr %193, i32 0, i32 38
  store i64 1, ptr %194, align 8, !tbaa !62
  %195 = load ptr, ptr %3, align 8, !tbaa !4
  %196 = load ptr, ptr %4, align 8, !tbaa !22
  %197 = getelementptr inbounds nuw %struct.GradientsContext, ptr %196, i32 0, i32 22
  %198 = load ptr, ptr %197, align 8, !tbaa !63
  %199 = load ptr, ptr %8, align 8, !tbaa !38
  %200 = load ptr, ptr %5, align 8, !tbaa !25
  %201 = getelementptr inbounds nuw %struct.AVFilterLink, ptr %200, i32 0, i32 7
  %202 = load i32, ptr %201, align 4, !tbaa !64
  %203 = load ptr, ptr %3, align 8, !tbaa !4
  %204 = call i32 @ff_filter_get_nb_threads(ptr noundef %203) #12
  %205 = icmp sgt i32 %202, %204
  br i1 %205, label %206, label %209

206:                                              ; preds = %172
  %207 = load ptr, ptr %3, align 8, !tbaa !4
  %208 = call i32 @ff_filter_get_nb_threads(ptr noundef %207) #12
  br label %213

209:                                              ; preds = %172
  %210 = load ptr, ptr %5, align 8, !tbaa !25
  %211 = getelementptr inbounds nuw %struct.AVFilterLink, ptr %210, i32 0, i32 7
  %212 = load i32, ptr %211, align 4, !tbaa !64
  br label %213

213:                                              ; preds = %209, %206
  %214 = phi i32 [ %208, %206 ], [ %212, %209 ]
  %215 = call i32 @ff_filter_execute(ptr noundef %195, ptr noundef %198, ptr noundef %199, ptr noundef null, i32 noundef %214)
  %216 = load ptr, ptr %5, align 8, !tbaa !25
  %217 = load ptr, ptr %8, align 8, !tbaa !38
  %218 = call i32 @ff_filter_frame(ptr noundef %216, ptr noundef %217)
  store i32 %218, ptr %2, align 4
  store i32 1, ptr %7, align 4
  br label %219

219:                                              ; preds = %213, %171
  call void @llvm.lifetime.end.p0(i64 4, ptr %11) #10
  call void @llvm.lifetime.end.p0(i64 4, ptr %10) #10
  call void @llvm.lifetime.end.p0(i64 4, ptr %9) #10
  call void @llvm.lifetime.end.p0(i64 8, ptr %8) #10
  br label %221

220:                                              ; preds = %45
  store i32 -1497649742, ptr %2, align 4
  store i32 1, ptr %7, align 4
  br label %221

221:                                              ; preds = %220, %219, %40
  call void @llvm.lifetime.end.p0(i64 8, ptr %5) #10
  call void @llvm.lifetime.end.p0(i64 8, ptr %4) #10
  %222 = load i32, ptr %2, align 4
  ret i32 %222
}