; Function Attrs: nounwind uwtable
define internal i32 @activate(ptr noundef %0) #1 {
  %2 = getelementptr inbounds nuw i8, ptr %0, i64 72
  %3 = load ptr, ptr %2, align 8, !tbaa !4
  %4 = getelementptr inbounds nuw i8, ptr %0, i64 56
  %5 = load ptr, ptr %4, align 8, !tbaa !20
  %6 = load ptr, ptr %5, align 8, !tbaa !21
  %7 = getelementptr inbounds nuw i8, ptr %3, i64 40
  %8 = load i64, ptr %7, align 8, !tbaa !23
  %9 = icmp sgt i64 %8, -1
  br i1 %9, label %10, label %17

10:                                               ; preds = %1
  %11 = getelementptr inbounds nuw i8, ptr %3, i64 32
  %12 = load i64, ptr %11, align 8, !tbaa !29
  %13 = getelementptr inbounds nuw i8, ptr %6, i64 96
  %14 = load i64, ptr %13, align 8
  %15 = tail call i64 @av_rescale_q(i64 noundef %12, i64 %14, i64 4294967296000001) #7
  %.not = icmp slt i64 %15, %8
  br i1 %.not, label %17, label %16

16:                                               ; preds = %10
  tail call void @ff_avfilter_link_set_in_status(ptr noundef nonnull %6, i32 noundef -541478725, i64 noundef %12) #8
  br label %91

17:                                               ; preds = %10, %1
  %18 = tail call i32 @ff_outlink_frame_wanted(ptr noundef %6) #8
  %.not73 = icmp eq i32 %18, 0
  br i1 %.not73, label %91, label %19

19:                                               ; preds = %17
  %20 = getelementptr inbounds nuw i8, ptr %3, i64 8
  %21 = load i32, ptr %20, align 8, !tbaa !30
  %22 = getelementptr inbounds nuw i8, ptr %3, i64 12
  %23 = load i32, ptr %22, align 4, !tbaa !31
  %24 = tail call ptr @ff_get_video_buffer(ptr noundef %6, i32 noundef %21, i32 noundef %23) #8
  %25 = getelementptr inbounds nuw i8, ptr %3, i64 52
  %26 = load float, ptr %25, align 4, !tbaa !32
  %27 = frem nsz float %26, 0x401921FB60000000
  %28 = load i32, ptr %20, align 8, !tbaa !30
  %29 = sitofp i32 %28 to float
  %30 = fmul nsz float %29, 5.000000e-01
  %31 = load i32, ptr %22, align 4, !tbaa !31
  %32 = sitofp i32 %31 to float
  %33 = fmul nsz float %32, 5.000000e-01
  %34 = getelementptr inbounds nuw i8, ptr %3, i64 48
  %35 = load float, ptr %34, align 8, !tbaa !33
  %36 = fadd nsz float %27, %35
  store float %36, ptr %25, align 4, !tbaa !32
  %37 = getelementptr inbounds nuw i8, ptr %3, i64 220
  %38 = load i32, ptr %37, align 4, !tbaa !34
  %39 = sitofp i32 %38 to float
  %40 = fsub nsz float %39, %30
  %41 = tail call nsz float @llvm.cos.f32(float %27)
  %42 = getelementptr inbounds nuw i8, ptr %3, i64 224
  %43 = load i32, ptr %42, align 8, !tbaa !35
  %44 = sitofp i32 %43 to float
  %45 = fsub nsz float %44, %33
  %46 = tail call nsz float @llvm.sin.f32(float %27)
  %47 = fneg nsz float %46
  %48 = fmul nsz float %45, %47
  %49 = tail call nsz float @llvm.fmuladd.f32(float %40, float %41, float %48)
  %50 = fadd nsz float %30, %49
  %51 = getelementptr inbounds nuw i8, ptr %3, i64 236
  store float %50, ptr %51, align 4, !tbaa !36
  %52 = fmul nsz float %41, %45
  %53 = tail call nsz float @llvm.fmuladd.f32(float %40, float %46, float %52)
  %54 = fadd nsz float %33, %53
  %55 = getelementptr inbounds nuw i8, ptr %3, i64 240
  store float %54, ptr %55, align 8, !tbaa !37
  %56 = getelementptr inbounds nuw i8, ptr %3, i64 228
  %57 = load i32, ptr %56, align 4, !tbaa !38
  %58 = sitofp i32 %57 to float
  %59 = fsub nsz float %58, %30
  %60 = getelementptr inbounds nuw i8, ptr %3, i64 232
  %61 = load i32, ptr %60, align 8, !tbaa !39
  %62 = sitofp i32 %61 to float
  %63 = fsub nsz float %62, %33
  %64 = fmul nsz float %63, %47
  %65 = tail call nsz float @llvm.fmuladd.f32(float %59, float %41, float %64)
  %66 = fadd nsz float %30, %65
  %67 = getelementptr inbounds nuw i8, ptr %3, i64 244
  store float %66, ptr %67, align 4, !tbaa !40
  %68 = fmul nsz float %41, %63
  %69 = tail call nsz float @llvm.fmuladd.f32(float %59, float %46, float %68)
  %70 = fadd nsz float %33, %69
  %71 = getelementptr inbounds nuw i8, ptr %3, i64 248
  store float %70, ptr %71, align 8, !tbaa !41
  %.not74 = icmp eq ptr %24, null
  br i1 %.not74, label %91, label %72

72:                                               ; preds = %19
  %73 = getelementptr inbounds nuw i8, ptr %24, i64 276
  %74 = load i32, ptr %73, align 4, !tbaa !42
  %75 = and i32 %74, -11
  %76 = or disjoint i32 %75, 2
  store i32 %76, ptr %73, align 4, !tbaa !42
  %77 = getelementptr inbounds nuw i8, ptr %24, i64 120
  store i32 1, ptr %77, align 8, !tbaa !49
  %78 = getelementptr inbounds nuw i8, ptr %24, i64 124
  store i32 1, ptr %78, align 4, !tbaa !50
  %.sroa.2.0..sroa_idx = getelementptr inbounds nuw i8, ptr %24, i64 128
  store i32 1, ptr %.sroa.2.0..sroa_idx, align 4, !tbaa !50
  %79 = getelementptr inbounds nuw i8, ptr %3, i64 32
  %80 = load i64, ptr %79, align 8, !tbaa !29
  %81 = add nsw i64 %80, 1
  store i64 %81, ptr %79, align 8, !tbaa !29
  %82 = getelementptr inbounds nuw i8, ptr %24, i64 136
  store i64 %80, ptr %82, align 8, !tbaa !51
  %83 = getelementptr inbounds nuw i8, ptr %24, i64 408
  store i64 1, ptr %83, align 8, !tbaa !52
  %84 = getelementptr inbounds nuw i8, ptr %3, i64 528
  %85 = load ptr, ptr %84, align 8, !tbaa !53
  %86 = getelementptr inbounds nuw i8, ptr %6, i64 44
  %87 = load i32, ptr %86, align 4, !tbaa !54
  %88 = tail call i32 @ff_filter_get_nb_threads(ptr noundef nonnull %0) #9
  %. = tail call i32 @llvm.smin.i32(i32 %87, i32 %88)
  %89 = tail call i32 @ff_filter_execute(ptr noundef nonnull %0, ptr noundef %85, ptr noundef nonnull %24, ptr noundef null, i32 noundef %.) #8
  %90 = tail call i32 @ff_filter_frame(ptr noundef %6, ptr noundef nonnull %24) #8
  br label %91

91:                                               ; preds = %17, %72, %19, %16
  %.0 = phi i32 [ 0, %16 ], [ %90, %72 ], [ -12, %19 ], [ -1497649742, %17 ]
  ret i32 %.0
}